Certificate:
    Data:
        Version: 3 (0x2)
        Serial Number: 2 (0x2)
    Signature Algorithm: sha256WithRSAEncryption
        Issuer: C=NO, ST=HORDALAND, L=BERGEN, O=BACHELOR, OU=MyVPN, CN=MyVPN/name=MyVPN/emailAddress=hoyerjorgen@gmail.com
        Validity
            Not Before: Feb  6 12:59:07 2017 GMT
            Not After : Feb  4 12:59:07 2027 GMT
        Subject: C=NO, ST=HORDALAND, L=BERGEN, O=BACHELOR, OU=MyVPN, CN=MyVPN/name=MyVPN/emailAddress=hoyerjorgen@gmail.com
        Subject Public Key Info:
            Public Key Algorithm: rsaEncryption
                Public-Key: (2048 bit)
                Modulus:
                    00:e1:e6:e6:d7:9e:32:55:e7:1c:a7:f4:7b:8a:fa:
                    3b:da:7d:5b:c1:fb:c2:d9:47:c3:b5:8a:87:e7:76:
                    a4:90:c4:e5:50:fa:e4:85:13:ab:3f:4b:7f:e8:c5:
                    ea:25:59:08:94:2c:f5:e1:d5:d8:76:1b:09:b0:77:
                    f6:17:45:1a:60:b1:d0:42:77:8a:71:33:48:4c:38:
                    7f:44:ee:7a:fc:91:ed:02:9e:2c:8f:69:3f:71:ac:
                    1a:41:7b:dc:5d:5d:98:cb:f0:59:91:02:cc:7f:8c:
                    e2:3b:d8:dd:15:c6:c0:ce:9f:50:f7:24:a6:14:6f:
                    c5:33:9d:89:e6:6d:d2:db:5e:f7:1e:ef:0b:11:a9:
                    80:aa:e2:b0:11:b7:83:39:44:f4:7c:87:c8:17:4f:
                    e6:5c:e5:11:79:af:7d:2f:55:b8:47:0f:0b:c2:ec:
                    a2:55:88:d8:8a:2a:bc:0a:be:20:41:4a:bd:49:38:
                    e7:55:95:af:65:ed:fd:01:be:80:36:0c:45:0d:fb:
                    d2:12:de:81:62:56:a3:41:89:63:33:ea:d2:a1:2c:
                    dc:fa:52:ab:11:c8:1f:12:2c:33:87:c8:d4:fa:8b:
                    9a:4c:64:52:f9:bc:51:a6:52:41:23:4a:ca:25:ee:
                    49:78:24:b1:5b:14:db:d9:c9:4b:1c:93:f9:a8:0e:
                    9a:45
                Exponent: 65537 (0x10001)
        X509v3 extensions:
            X509v3 Basic Constraints: 
                CA:FALSE
            Netscape Comment: 
                Easy-RSA Generated Certificate
            X509v3 Subject Key Identifier: 
                74:35:CC:4F:F2:8D:A7:05:CE:76:68:0C:04:78:65:B2:DF:25:97:2C
            X509v3 Authority Key Identifier: 
                keyid:4A:CB:9B:FF:85:3F:29:30:C3:0F:A0:F0:2D:54:4C:2C:0C:CF:0E:4D
                DirName:/C=NO/ST=HORDALAND/L=BERGEN/O=BACHELOR/OU=MyVPN/CN=MyVPN/name=MyVPN/emailAddress=hoyerjorgen@gmail.com
                serial:9A:B1:F5:EC:1D:F8:B7:9C

            X509v3 Extended Key Usage: 
                TLS Web Client Authentication
            X509v3 Key Usage: 
                Digital Signature
            X509v3 Subject Alternative Name: 
                DNS:client1
    Signature Algorithm: sha256WithRSAEncryption
         3c:5a:d5:3a:dc:eb:bd:03:b4:84:3a:0c:47:79:5a:cf:44:34:
         76:54:78:56:2f:40:77:c6:81:92:e0:b1:0a:e9:12:09:f9:4e:
         e7:ad:ac:1f:04:16:d7:3c:55:e7:2e:99:1c:3a:5f:43:eb:7d:
         60:cc:8c:07:36:7c:8e:b9:33:09:5b:03:a7:3e:66:26:d9:34:
         43:73:cc:ff:6a:15:f4:f4:89:a0:9d:e3:72:fd:7d:5b:7a:0c:
         6d:85:4c:dc:93:05:36:ee:9b:c2:f1:55:db:72:a4:fc:31:3d:
         5d:d2:79:39:d3:8d:f7:39:82:c5:11:f4:76:d1:85:d6:b9:2c:
         b1:ed:0c:06:11:9c:d1:ea:fd:b2:8c:61:0e:09:e5:0d:88:9a:
         d0:1b:97:91:d9:86:21:e5:8a:0a:24:34:63:5e:88:79:b6:50:
         76:03:5b:d8:8d:d5:d0:ac:b0:8f:4c:0e:a7:1b:42:51:7b:3f:
         33:e0:c0:8b:9d:b3:89:78:8a:49:7b:81:58:f2:a1:b8:95:c1:
         59:c4:a0:0f:9e:35:6a:59:95:25:82:32:0f:5e:27:08:84:cc:
         3b:1e:03:ae:e9:99:8d:e5:06:da:64:fa:bd:76:9e:fa:a9:35:
         7a:ed:a4:f1:2c:6b:89:5d:65:b6:9a:a7:c4:6d:24:cc:48:81:
         50:79:b9:5a
-----BEGIN CERTIFICATE-----
MIIFGzCCBAOgAwIBAgIBAjANBgkqhkiG9w0BAQsFADCBmzELMAkGA1UEBhMCTk8x
EjAQBgNVBAgTCUhPUkRBTEFORDEPMA0GA1UEBxMGQkVSR0VOMREwDwYDVQQKEwhC
QUNIRUxPUjEOMAwGA1UECxMFTXlWUE4xDjAMBgNVBAMTBU15VlBOMQ4wDAYDVQQp
EwVNeVZQTjEkMCIGCSqGSIb3DQEJARYVaG95ZXJqb3JnZW5AZ21haWwuY29tMB4X
DTE3MDIwNjEyNTkwN1oXDTI3MDIwNDEyNTkwN1owgZsxCzAJBgNVBAYTAk5PMRIw
EAYDVQQIEwlIT1JEQUxBTkQxDzANBgNVBAcTBkJFUkdFTjERMA8GA1UEChMIQkFD
SEVMT1IxDjAMBgNVBAsTBU15VlBOMQ4wDAYDVQQDEwVNeVZQTjEOMAwGA1UEKRMF
TXlWUE4xJDAiBgkqhkiG9w0BCQEWFWhveWVyam9yZ2VuQGdtYWlsLmNvbTCCASIw
DQYJKoZIhvcNAQEBBQADggEPADCCAQoCggEBAOHm5teeMlXnHKf0e4r6O9p9W8H7
wtlHw7WKh+d2pJDE5VD65IUTqz9Lf+jF6iVZCJQs9eHV2HYbCbB39hdFGmCx0EJ3
inEzSEw4f0TuevyR7QKeLI9pP3GsGkF73F1dmMvwWZECzH+M4jvY3RXGwM6fUPck
phRvxTOdieZt0tte9x7vCxGpgKrisBG3gzlE9HyHyBdP5lzlEXmvfS9VuEcPC8Ls
olWI2IoqvAq+IEFKvUk451WVr2Xt/QG+gDYMRQ370hLegWJWo0GJYzPq0qEs3PpS
qxHIHxIsM4fI1PqLmkxkUvm8UaZSQSNKyiXuSXgksVsU29nJSxyT+agOmkUCAwEA
AaOCAWYwggFiMAkGA1UdEwQCMAAwLQYJYIZIAYb4QgENBCAWHkVhc3ktUlNBIEdl
bmVyYXRlZCBDZXJ0aWZpY2F0ZTAdBgNVHQ4EFgQUdDXMT/KNpwXOdmgMBHhlst8l
lywwgdAGA1UdIwSByDCBxYAUSsub/4U/KTDDD6DwLVRMLAzPDk2hgaGkgZ4wgZsx
CzAJBgNVBAYTAk5PMRIwEAYDVQQIEwlIT1JEQUxBTkQxDzANBgNVBAcTBkJFUkdF
TjERMA8GA1UEChMIQkFDSEVMT1IxDjAMBgNVBAsTBU15VlBOMQ4wDAYDVQQDEwVN
eVZQTjEOMAwGA1UEKRMFTXlWUE4xJDAiBgkqhkiG9w0BCQEWFWhveWVyam9yZ2Vu
QGdtYWlsLmNvbYIJAJqx9ewd+LecMBMGA1UdJQQMMAoGCCsGAQUFBwMCMAsGA1Ud
DwQEAwIHgDASBgNVHREECzAJggdjbGllbnQxMA0GCSqGSIb3DQEBCwUAA4IBAQA8
WtU63Ou9A7SEOgxHeVrPRDR2VHhWL0B3xoGS4LEK6RIJ+U7nrawfBBbXPFXnLpkc
Ol9D631gzIwHNnyOuTMJWwOnPmYm2TRDc8z/ahX09ImgneNy/X1begxthUzckwU2
7pvC8VXbcqT8MT1d0nk50433OYLFEfR20YXWuSyx7QwGEZzR6v2yjGEOCeUNiJrQ
G5eR2YYh5YoKJDRjXoh5tlB2A1vYjdXQrLCPTA6nG0JRez8z4MCLnbOJeIpJe4FY
8qG4lcFZxKAPnjVqWZUlgjIPXicIhMw7HgOu6ZmN5QbaZPq9dp76qTV67aTxLGuJ
XWW2mqfEbSTMSIFQebla
-----END CERTIFICATE-----
